; Function Attrs: nofree nounwind uwtable
define void @Abc_NtkPrintFinResults(ptr noundef readonly captures(none) %0) local_unnamed_addr #14 {
  %2 = getelementptr i8, ptr %0, i64 4
  %.val1620 = load i32, ptr %2, align 4, !tbaa !87
  %3 = icmp sgt i32 %.val1620, 0
  br i1 %3, label %.lr.ph22, label %.critedge

.lr.ph22:                                         ; preds = %1
  %4 = getelementptr i8, ptr %0, i64 8
  br label %5

5:                                                ; preds = %.lr.ph22, %.critedge2
  %.val1627 = phi i32 [ %.val1620, %.lr.ph22 ], [ %.val16, %.critedge2 ]
  %indvars.iv24 = phi i64 [ 0, %.lr.ph22 ], [ %indvars.iv.next25, %.critedge2 ]
  %.val17 = load ptr, ptr %4, align 8, !tbaa !90
  %6 = getelementptr inbounds nuw %struct.Vec_Int_t_, ptr %.val17, i64 %indvars.iv24
  %7 = getelementptr i8, ptr %6, i64 4
  %.val1518 = load i32, ptr %7, align 4, !tbaa !37
  %8 = icmp sgt i32 %.val1518, 1
  br i1 %8, label %.lr.ph, label %.critedge2

.lr.ph:                                           ; preds = %5
  %9 = getelementptr i8, ptr %6, i64 8
  br label %10

10:                                               ; preds = %.lr.ph, %10
  %indvars.iv = phi i64 [ 1, %.lr.ph ], [ %indvars.iv.next, %10 ]
  %.val14 = load ptr, ptr %9, align 8, !tbaa !36
  %11 = getelementptr inbounds nuw i32, ptr %.val14, i64 %indvars.iv
  %12 = load i32, ptr %11, align 4, !tbaa !34
  %13 = load i32, ptr %.val14, align 4, !tbaa !34
  %14 = tail call i32 (ptr, ...) @printf(ptr noundef nonnull dereferenceable(1) @.str.33, i32 noundef %13, i32 noundef %12)
  %indvars.iv.next = add nuw nsw i64 %indvars.iv, 1
  %.val15 = load i32, ptr %7, align 4, !tbaa !37
  %15 = sext i32 %.val15 to i64
  %16 = icmp slt i64 %indvars.iv.next, %15
  br i1 %16, label %10, label %.critedge2.loopexit, !llvm.loop !195

.critedge2.loopexit:                              ; preds = %10
  %.val16.pre = load i32, ptr %2, align 4, !tbaa !87
  br label %.critedge2

.critedge2:                                       ; preds = %.critedge2.loopexit, %5
  %.val16 = phi i32 [ %.val16.pre, %.critedge2.loopexit ], [ %.val1627, %5 ]
  %indvars.iv.next25 = add nuw nsw i64 %indvars.iv24, 1
  %17 = sext i32 %.val16 to i64
  %18 = icmp slt i64 %indvars.iv.next25, %17
  br i1 %18, label %5, label %.critedge, !llvm.loop !196

.critedge:                                        ; preds = %.critedge2, %1
  ret void
}